target datalayout = "e-m:e-p270:32:32-p271:32:32-p272:64:64-i64:64-i128:128-f80:128-n8:16:32:64-S128"
target triple = "x86_64-pc-linux-gnu"

%struct.ossl_method_store_st = type { ptr, ptr, ptr, ptr, i64, i32 }
%struct.ALGORITHM = type { i32, ptr, ptr }
%struct.IMPLEMENTATION = type { ptr, ptr, %struct.METHOD }
%struct.METHOD = type { ptr, ptr, ptr }

@.str = private unnamed_addr constant [38 x i8] c"../openssl/crypto/property/property.c\00", align 1

; Function Attrs: inlinehint nounwind uwtable
define internal void @lh_QUERY_flush(ptr noundef %0) #3 {
  %2 = alloca ptr, align 8
  store ptr %0, ptr %2, align 8, !tbaa !74
  %3 = load ptr, ptr %2, align 8, !tbaa !74
  call void @OPENSSL_LH_flush(ptr noundef %3)
  ret void
}

; Function Attrs: inlinehint nounwind uwtable
define internal void @lh_QUERY_doall(ptr noundef %0, ptr noundef %1) #3 {
  %3 = alloca ptr, align 8
  %4 = alloca ptr, align 8
  store ptr %0, ptr %3, align 8, !tbaa !74
  store ptr %1, ptr %4, align 8, !tbaa !3
  %5 = load ptr, ptr %3, align 8, !tbaa !74
  %6 = load ptr, ptr %4, align 8, !tbaa !3
  call void @OPENSSL_LH_doall(ptr noundef %5, ptr noundef %6)
  ret void
}

; Function Attrs: nounwind uwtable
define internal void @impl_cache_flush_alg(i64 noundef %0, ptr noundef %1) #0 {
  %3 = alloca i64, align 8
  %4 = alloca ptr, align 8
  store i64 %0, ptr %3, align 8, !tbaa !26
  store ptr %1, ptr %4, align 8, !tbaa !3
  %5 = load ptr, ptr %4, align 8, !tbaa !3
  %6 = getelementptr inbounds nuw %struct.ALGORITHM, ptr %5, i32 0, i32 2
  %7 = load ptr, ptr %6, align 8, !tbaa !31
  call void @lh_QUERY_doall(ptr noundef %7, ptr noundef @impl_cache_free)
  %8 = load ptr, ptr %4, align 8, !tbaa !3
  %9 = getelementptr inbounds nuw %struct.ALGORITHM, ptr %8, i32 0, i32 2
  %10 = load ptr, ptr %9, align 8, !tbaa !31
  call void @lh_QUERY_flush(ptr noundef %10)
  ret void
}

; Function Attrs: inlinehint nounwind uwtable
define internal i64 @lh_QUERY_num_items(ptr noundef %0) #3 {
  %2 = alloca ptr, align 8
  store ptr %0, ptr %2, align 8, !tbaa !74
  %3 = load ptr, ptr %2, align 8, !tbaa !74
  %4 = call i64 @OPENSSL_LH_num_items(ptr noundef %3)
  ret i64 %4
}

; Function Attrs: nounwind uwtable
define internal void @ossl_method_free(ptr noundef %0) #0 {
  %2 = alloca ptr, align 8
  store ptr %0, ptr %2, align 8, !tbaa !3
  %3 = load ptr, ptr %2, align 8, !tbaa !3
  %4 = getelementptr inbounds nuw %struct.METHOD, ptr %3, i32 0, i32 2
  %5 = load ptr, ptr %4, align 8, !tbaa !82
  %6 = load ptr, ptr %2, align 8, !tbaa !3
  %7 = getelementptr inbounds nuw %struct.METHOD, ptr %6, i32 0, i32 0
  %8 = load ptr, ptr %7, align 8, !tbaa !49
  call void %5(ptr noundef %8)
  ret void
}

; Function Attrs: inlinehint nounwind uwtable
define internal ptr @ossl_sa_ALGORITHM_get(ptr noundef %0, i64 noundef %1) #3 {
  %3 = alloca ptr, align 8
  %4 = alloca i64, align 8
  store ptr %0, ptr %3, align 8, !tbaa !25
  store i64 %1, ptr %4, align 8, !tbaa !26
  %5 = load ptr, ptr %3, align 8, !tbaa !25
  %6 = load i64, ptr %4, align 8, !tbaa !26
  %7 = call ptr @ossl_sa_get(ptr noundef %5, i64 noundef %6)
  ret ptr %7
}

; Function Attrs: nounwind uwtable
define internal void @ossl_method_cache_flush_alg(ptr noundef %0, ptr noundef %1) #0 {
  %3 = alloca ptr, align 8
  %4 = alloca ptr, align 8
  store ptr %0, ptr %3, align 8, !tbaa !16
  store ptr %1, ptr %4, align 8, !tbaa !3
  %5 = load ptr, ptr %4, align 8, !tbaa !3
  %6 = getelementptr inbounds nuw %struct.ALGORITHM, ptr %5, i32 0, i32 2
  %7 = load ptr, ptr %6, align 8, !tbaa !31
  %8 = call i64 @lh_QUERY_num_items(ptr noundef %7)
  %9 = load ptr, ptr %3, align 8, !tbaa !16
  %10 = getelementptr inbounds nuw %struct.ossl_method_store_st, ptr %9, i32 0, i32 4
  %11 = load i64, ptr %10, align 8, !tbaa !72
  %12 = sub i64 %11, %8
  store i64 %12, ptr %10, align 8, !tbaa !72
  %13 = load ptr, ptr %4, align 8, !tbaa !3
  call void @impl_cache_flush_alg(i64 noundef 0, ptr noundef %13)
  ret void
}

; Function Attrs: inlinehint nounwind uwtable
define internal ptr @sk_IMPLEMENTATION_delete(ptr noundef %0, i32 noundef %1) #3 {
  %3 = alloca ptr, align 8
  %4 = alloca i32, align 4
  store ptr %0, ptr %3, align 8, !tbaa !53
  store i32 %1, ptr %4, align 4, !tbaa !15
  %5 = load ptr, ptr %3, align 8, !tbaa !53
  %6 = load i32, ptr %4, align 4, !tbaa !15
  %7 = call ptr @OPENSSL_sk_delete(ptr noundef %5, i32 noundef %6)
  ret ptr %7
}

; Function Attrs: nounwind uwtable
define internal void @impl_free(ptr noundef %0) #0 {
  %2 = alloca ptr, align 8
  store ptr %0, ptr %2, align 8, !tbaa !3
  %3 = load ptr, ptr %2, align 8, !tbaa !3
  %4 = icmp ne ptr %3, null
  br i1 %4, label %5, label %9

5:                                                ; preds = %1
  %6 = load ptr, ptr %2, align 8, !tbaa !3
  %7 = getelementptr inbounds nuw %struct.IMPLEMENTATION, ptr %6, i32 0, i32 2
  call void @ossl_method_free(ptr noundef %7)
  %8 = load ptr, ptr %2, align 8, !tbaa !3
  call void @CRYPTO_free(ptr noundef %8, ptr noundef @.str, i32 noundef 207)
  br label %9

9:                                                ; preds = %5, %1
  ret void
}

; Function Attrs: inlinehint nounwind uwtable
define internal ptr @sk_IMPLEMENTATION_value(ptr noundef %0, i32 noundef %1) #3 {
  %3 = alloca ptr, align 8
  %4 = alloca i32, align 4
  store ptr %0, ptr %3, align 8, !tbaa !53
  store i32 %1, ptr %4, align 4, !tbaa !15
  %5 = load ptr, ptr %3, align 8, !tbaa !53
  %6 = load i32, ptr %4, align 4, !tbaa !15
  %7 = call ptr @OPENSSL_sk_value(ptr noundef %5, i32 noundef %6)
  ret ptr %7
}

; Function Attrs: inlinehint nounwind uwtable
define internal i32 @sk_IMPLEMENTATION_num(ptr noundef %0) #3 {
  %2 = alloca ptr, align 8
  store ptr %0, ptr %2, align 8, !tbaa !53
  %3 = load ptr, ptr %2, align 8, !tbaa !53
  %4 = call i32 @OPENSSL_sk_num(ptr noundef %3)
  ret i32 %4
}

; Function Attrs: nounwind uwtable
define internal i32 @ossl_property_unlock(ptr noundef %0) #0 {
  %2 = alloca ptr, align 8
  store ptr %0, ptr %2, align 8, !tbaa !16
  %3 = load ptr, ptr %2, align 8, !tbaa !16
  %4 = icmp ne ptr %3, null
  br i1 %4, label %5, label %10

5:                                                ; preds = %1
  %6 = load ptr, ptr %2, align 8, !tbaa !16
  %7 = getelementptr inbounds nuw %struct.ossl_method_store_st, ptr %6, i32 0, i32 2
  %8 = load ptr, ptr %7, align 8, !tbaa !23
  %9 = call i32 @CRYPTO_THREAD_unlock(ptr noundef %8)
  br label %11

10:                                               ; preds = %1
  br label %11

11:                                               ; preds = %10, %5
  %12 = phi i32 [ %9, %5 ], [ 0, %10 ]
  ret i32 %12
}

; Function Attrs: nounwind uwtable
define internal ptr @ossl_method_store_retrieve(ptr noundef %0, i32 noundef %1) #0 {
  %3 = alloca ptr, align 8
  %4 = alloca i32, align 4
  store ptr %0, ptr %3, align 8, !tbaa !16
  store i32 %1, ptr %4, align 4, !tbaa !15
  %5 = load ptr, ptr %3, align 8, !tbaa !16
  %6 = getelementptr inbounds nuw %struct.ossl_method_store_st, ptr %5, i32 0, i32 1
  %7 = load ptr, ptr %6, align 8, !tbaa !22
  %8 = load i32, ptr %4, align 4, !tbaa !15
  %9 = sext i32 %8 to i64
  %10 = call ptr @ossl_sa_ALGORITHM_get(ptr noundef %7, i64 noundef %9)
  ret ptr %10
}

; Function Attrs: nounwind uwtable
define internal void @ossl_method_cache_flush(ptr noundef %0, i32 noundef %1) #0 {
  %3 = alloca ptr, align 8
  %4 = alloca i32, align 4
  %5 = alloca ptr, align 8
  store ptr %0, ptr %3, align 8, !tbaa !16
  store i32 %1, ptr %4, align 4, !tbaa !15
  call void @llvm.lifetime.start.p0(i64 8, ptr %5) #7
  %6 = load ptr, ptr %3, align 8, !tbaa !16
  %7 = load i32, ptr %4, align 4, !tbaa !15
  %8 = call ptr @ossl_method_store_retrieve(ptr noundef %6, i32 noundef %7)
  store ptr %8, ptr %5, align 8, !tbaa !3
  %9 = load ptr, ptr %5, align 8, !tbaa !3
  %10 = icmp ne ptr %9, null
  br i1 %10, label %11, label %14

11:                                               ; preds = %2
  %12 = load ptr, ptr %3, align 8, !tbaa !16
  %13 = load ptr, ptr %5, align 8, !tbaa !3
  call void @ossl_method_cache_flush_alg(ptr noundef %12, ptr noundef %13)
  br label %14

14:                                               ; preds = %11, %2
  call void @llvm.lifetime.end.p0(i64 8, ptr %5) #7
  ret void
}

; Function Attrs: nounwind uwtable
define internal i32 @ossl_property_write_lock(ptr noundef %0) #0 {
  %2 = alloca ptr, align 8
  store ptr %0, ptr %2, align 8, !tbaa !16
  %3 = load ptr, ptr %2, align 8, !tbaa !16
  %4 = icmp ne ptr %3, null
  br i1 %4, label %5, label %10

5:                                                ; preds = %1
  %6 = load ptr, ptr %2, align 8, !tbaa !16
  %7 = getelementptr inbounds nuw %struct.ossl_method_store_st, ptr %6, i32 0, i32 2
  %8 = load ptr, ptr %7, align 8, !tbaa !23
  %9 = call i32 @CRYPTO_THREAD_write_lock(ptr noundef %8)
  br label %11

10:                                               ; preds = %1
  br label %11

11:                                               ; preds = %10, %5
  %12 = phi i32 [ %9, %5 ], [ 0, %10 ]
  ret i32 %12
}

; Function Attrs: nounwind uwtable
define i32 @ossl_method_store_remove(ptr noundef %0, i32 noundef %1, ptr noundef %2) #0 {
  %4 = alloca i32, align 4
  %5 = alloca ptr, align 8
  %6 = alloca i32, align 4
  %7 = alloca ptr, align 8
  %8 = alloca ptr, align 8
  %9 = alloca i32, align 4
  %10 = alloca i32, align 4
  %11 = alloca ptr, align 8
  store ptr %0, ptr %5, align 8, !tbaa !16
  store i32 %1, ptr %6, align 4, !tbaa !15
  store ptr %2, ptr %7, align 8, !tbaa !3
  call void @llvm.lifetime.start.p0(i64 8, ptr %8) #7
  store ptr null, ptr %8, align 8, !tbaa !3
  call void @llvm.lifetime.start.p0(i64 4, ptr %9) #7
  %12 = load i32, ptr %6, align 4, !tbaa !15
  %13 = icmp sle i32 %12, 0
  br i1 %13, label %20, label %14

14:                                               ; preds = %3
  %15 = load ptr, ptr %7, align 8, !tbaa !3
  %16 = icmp eq ptr %15, null
  br i1 %16, label %20, label %17

17:                                               ; preds = %14
  %18 = load ptr, ptr %5, align 8, !tbaa !16
  %19 = icmp eq ptr %18, null
  br i1 %19, label %20, label %21

20:                                               ; preds = %17, %14, %3
  store i32 0, ptr %4, align 4
  store i32 1, ptr %10, align 4
  br label %76

21:                                               ; preds = %17
  %22 = load ptr, ptr %5, align 8, !tbaa !16
  %23 = call i32 @ossl_property_write_lock(ptr noundef %22)
  %24 = icmp ne i32 %23, 0
  br i1 %24, label %26, label %25

25:                                               ; preds = %21
  store i32 0, ptr %4, align 4
  store i32 1, ptr %10, align 4
  br label %76

26:                                               ; preds = %21
  %27 = load ptr, ptr %5, align 8, !tbaa !16
  %28 = load i32, ptr %6, align 4, !tbaa !15
  call void @ossl_method_cache_flush(ptr noundef %27, i32 noundef %28)
  %29 = load ptr, ptr %5, align 8, !tbaa !16
  %30 = load i32, ptr %6, align 4, !tbaa !15
  %31 = call ptr @ossl_method_store_retrieve(ptr noundef %29, i32 noundef %30)
  store ptr %31, ptr %8, align 8, !tbaa !3
  %32 = load ptr, ptr %8, align 8, !tbaa !3
  %33 = icmp eq ptr %32, null
  br i1 %33, label %34, label %37

34:                                               ; preds = %26
  %35 = load ptr, ptr %5, align 8, !tbaa !16
  %36 = call i32 @ossl_property_unlock(ptr noundef %35)
  store i32 0, ptr %4, align 4
  store i32 1, ptr %10, align 4
  br label %76

37:                                               ; preds = %26
  store i32 0, ptr %9, align 4, !tbaa !15
  br label %38

38:                                               ; preds = %70, %37
  %39 = load i32, ptr %9, align 4, !tbaa !15
  %40 = load ptr, ptr %8, align 8, !tbaa !3
  %41 = getelementptr inbounds nuw %struct.ALGORITHM, ptr %40, i32 0, i32 1
  %42 = load ptr, ptr %41, align 8, !tbaa !27
  %43 = call i32 @sk_IMPLEMENTATION_num(ptr noundef %42)
  %44 = icmp slt i32 %39, %43
  br i1 %44, label %45, label %73

45:                                               ; preds = %38
  call void @llvm.lifetime.start.p0(i64 8, ptr %11) #7
  %46 = load ptr, ptr %8, align 8, !tbaa !3
  %47 = getelementptr inbounds nuw %struct.ALGORITHM, ptr %46, i32 0, i32 1
  %48 = load ptr, ptr %47, align 8, !tbaa !27
  %49 = load i32, ptr %9, align 4, !tbaa !15
  %50 = call ptr @sk_IMPLEMENTATION_value(ptr noundef %48, i32 noundef %49)
  store ptr %50, ptr %11, align 8, !tbaa !3
  %51 = load ptr, ptr %11, align 8, !tbaa !3
  %52 = getelementptr inbounds nuw %struct.IMPLEMENTATION, ptr %51, i32 0, i32 2
  %53 = getelementptr inbounds nuw %struct.METHOD, ptr %52, i32 0, i32 0
  %54 = load ptr, ptr %53, align 8, !tbaa !36
  %55 = load ptr, ptr %7, align 8, !tbaa !3
  %56 = icmp eq ptr %54, %55
  br i1 %56, label %57, label %66

57:                                               ; preds = %45
  %58 = load ptr, ptr %11, align 8, !tbaa !3
  call void @impl_free(ptr noundef %58)
  %59 = load ptr, ptr %8, align 8, !tbaa !3
  %60 = getelementptr inbounds nuw %struct.ALGORITHM, ptr %59, i32 0, i32 1
  %61 = load ptr, ptr %60, align 8, !tbaa !27
  %62 = load i32, ptr %9, align 4, !tbaa !15
  %63 = call ptr @sk_IMPLEMENTATION_delete(ptr noundef %61, i32 noundef %62)
  %64 = load ptr, ptr %5, align 8, !tbaa !16
  %65 = call i32 @ossl_property_unlock(ptr noundef %64)
  store i32 1, ptr %4, align 4
  store i32 1, ptr %10, align 4
  br label %67

66:                                               ; preds = %45
  store i32 0, ptr %10, align 4
  br label %67

67:                                               ; preds = %66, %57
  call void @llvm.lifetime.end.p0(i64 8, ptr %11) #7
  %68 = load i32, ptr %10, align 4
  switch i32 %68, label %76 [
    i32 0, label %69
  ]

69:                                               ; preds = %67
  br label %70

70:                                               ; preds = %69
  %71 = load i32, ptr %9, align 4, !tbaa !15
  %72 = add nsw i32 %71, 1
  store i32 %72, ptr %9, align 4, !tbaa !15
  br label %38, !llvm.loop !54

73:                                               ; preds = %38
  %74 = load ptr, ptr %5, align 8, !tbaa !16
  %75 = call i32 @ossl_property_unlock(ptr noundef %74)
  store i32 0, ptr %4, align 4
  store i32 1, ptr %10, align 4
  br label %76

76:                                               ; preds = %73, %67, %34, %25, %20
  call void @llvm.lifetime.end.p0(i64 4, ptr %9) #7
  call void @llvm.lifetime.end.p0(i64 8, ptr %8) #7
  %77 = load i32, ptr %4, align 4
  ret i32 %77
}