; Function Attrs: nounwind uwtable
define range(i32 0, 2) i32 @ossl_method_store_remove(ptr noundef captures(address_is_null) %0, i32 noundef %1, ptr noundef readnone captures(address) %2) local_unnamed_addr #0 {
  %4 = icmp slt i32 %1, 1
  %5 = icmp eq ptr %2, null
  %or.cond = or i1 %4, %5
  %6 = icmp eq ptr %0, null
  %or.cond3 = or i1 %6, %or.cond
  br i1 %or.cond3, label %42, label %ossl_property_write_lock.exit

ossl_property_write_lock.exit:                    ; preds = %3
  %7 = getelementptr inbounds nuw i8, ptr %0, i64 16
  %8 = load ptr, ptr %7, align 8, !tbaa !16
  %9 = tail call i32 @CRYPTO_THREAD_write_lock(ptr noundef %8) #7
  %.not = icmp eq i32 %9, 0
  br i1 %.not, label %42, label %10

10:                                               ; preds = %ossl_property_write_lock.exit
  %11 = getelementptr i8, ptr %0, i64 8
  %.val.i = load ptr, ptr %11, align 8, !tbaa !15
  %12 = zext nneg i32 %1 to i64
  %13 = tail call ptr @ossl_sa_get(ptr noundef %.val.i, i64 noundef range(i64 1, 2147483648) %12) #7
  %.not.i33 = icmp eq ptr %13, null
  br i1 %.not.i33, label %ossl_method_cache_flush.exit, label %14

14:                                               ; preds = %10
  %15 = getelementptr inbounds nuw i8, ptr %13, i64 16
  %16 = load ptr, ptr %15, align 8, !tbaa !22
  %17 = tail call i64 @OPENSSL_LH_num_items(ptr noundef %16) #7
  %18 = getelementptr inbounds nuw i8, ptr %0, i64 32
  %19 = load i64, ptr %18, align 8, !tbaa !31
  %20 = sub i64 %19, %17
  store i64 %20, ptr %18, align 8, !tbaa !31
  %21 = load ptr, ptr %15, align 8, !tbaa !22
  tail call void @OPENSSL_LH_doall(ptr noundef %21, ptr noundef nonnull @impl_cache_free) #7
  %22 = load ptr, ptr %15, align 8, !tbaa !22
  tail call void @OPENSSL_LH_flush(ptr noundef %22) #7
  br label %ossl_method_cache_flush.exit

ossl_method_cache_flush.exit:                     ; preds = %10, %14
  %.val = load ptr, ptr %11, align 8, !tbaa !15
  %23 = tail call ptr @ossl_sa_get(ptr noundef %.val, i64 noundef range(i64 1, 2147483648) %12) #7
  %24 = icmp eq ptr %23, null
  br i1 %24, label %.sink.split, label %.preheader

.preheader:                                       ; preds = %ossl_method_cache_flush.exit
  %25 = getelementptr inbounds nuw i8, ptr %23, i64 8
  %26 = load ptr, ptr %25, align 8, !tbaa !18
  %27 = tail call i32 @OPENSSL_sk_num(ptr noundef %26) #7
  %28 = icmp sgt i32 %27, 0
  br i1 %28, label %.lr.ph, label %.sink.split

.lr.ph:                                           ; preds = %.preheader, %.critedge
  %.02745 = phi i32 [ %36, %.critedge ], [ 0, %.preheader ]
  %29 = load ptr, ptr %25, align 8, !tbaa !18
  %30 = tail call ptr @OPENSSL_sk_value(ptr noundef %29, i32 noundef %.02745) #7
  %31 = getelementptr inbounds nuw i8, ptr %30, i64 16
  %32 = load ptr, ptr %31, align 8, !tbaa !24
  %.not32 = icmp eq ptr %32, %2
  br i1 %.not32, label %ossl_property_unlock.exit38, label %.critedge

ossl_property_unlock.exit38:                      ; preds = %.lr.ph
  %33 = getelementptr i8, ptr %30, i64 32
  %.val3.i = load ptr, ptr %33, align 8, !tbaa !37
  tail call void %.val3.i(ptr noundef %32) #7
  tail call void @CRYPTO_free(ptr noundef nonnull %30, ptr noundef nonnull @.str, i32 noundef 207) #7
  %34 = load ptr, ptr %25, align 8, !tbaa !18
  %35 = tail call ptr @OPENSSL_sk_delete(ptr noundef %34, i32 noundef %.02745) #7
  br label %.sink.split

.critedge:                                        ; preds = %.lr.ph
  %36 = add nuw nsw i32 %.02745, 1
  %37 = load ptr, ptr %25, align 8, !tbaa !18
  %38 = tail call i32 @OPENSSL_sk_num(ptr noundef %37) #7
  %39 = icmp slt i32 %36, %38
  br i1 %39, label %.lr.ph, label %.sink.split, !llvm.loop !42

.sink.split:                                      ; preds = %.critedge, %.preheader, %ossl_method_cache_flush.exit, %ossl_property_unlock.exit38
  %.0.ph = phi i32 [ 1, %ossl_property_unlock.exit38 ], [ 0, %ossl_method_cache_flush.exit ], [ 0, %.preheader ], [ 0, %.critedge ]
  %40 = load ptr, ptr %7, align 8, !tbaa !16
  %41 = tail call i32 @CRYPTO_THREAD_unlock(ptr noundef %40) #7
  br label %42

42:                                               ; preds = %.sink.split, %ossl_property_write_lock.exit, %3
  %.0 = phi i32 [ 0, %3 ], [ 0, %ossl_property_write_lock.exit ], [ %.0.ph, %.sink.split ]
  ret i32 %.0
}